target datalayout = "e-m:e-p270:32:32-p271:32:32-p272:64:64-i64:64-i128:128-f80:128-n8:16:32:64-S128"
target triple = "x86_64-pc-linux-gnu"

; Function Attrs: nounwind uwtable
define internal void @fe_invert(ptr noundef %0, ptr noundef %1) #0 {
  %3 = alloca ptr, align 8
  %4 = alloca ptr, align 8
  %5 = alloca [10 x i32], align 16
  %6 = alloca [10 x i32], align 16
  %7 = alloca [10 x i32], align 16
  %8 = alloca [10 x i32], align 16
  %9 = alloca i32, align 4
  store ptr %0, ptr %3, align 8, !tbaa !13
  store ptr %1, ptr %4, align 8, !tbaa !13
  call void @llvm.lifetime.start.p0(i64 40, ptr %5) #5
  call void @llvm.lifetime.start.p0(i64 40, ptr %6) #5
  call void @llvm.lifetime.start.p0(i64 40, ptr %7) #5
  call void @llvm.lifetime.start.p0(i64 40, ptr %8) #5
  call void @llvm.lifetime.start.p0(i64 4, ptr %9) #5
  %10 = getelementptr inbounds [10 x i32], ptr %5, i64 0, i64 0
  %11 = load ptr, ptr %4, align 8, !tbaa !13
  call void @fe_sq(ptr noundef %10, ptr noundef %11)
  store i32 1, ptr %9, align 4, !tbaa !15
  br label %12

12:                                               ; preds = %18, %2
  %13 = load i32, ptr %9, align 4, !tbaa !15
  %14 = icmp slt i32 %13, 1
  br i1 %14, label %15, label %21

15:                                               ; preds = %12
  %16 = getelementptr inbounds [10 x i32], ptr %5, i64 0, i64 0
  %17 = getelementptr inbounds [10 x i32], ptr %5, i64 0, i64 0
  call void @fe_sq(ptr noundef %16, ptr noundef %17)
  br label %18

18:                                               ; preds = %15
  %19 = load i32, ptr %9, align 4, !tbaa !15
  %20 = add nsw i32 %19, 1
  store i32 %20, ptr %9, align 4, !tbaa !15
  br label %12, !llvm.loop !17

21:                                               ; preds = %12
  %22 = getelementptr inbounds [10 x i32], ptr %6, i64 0, i64 0
  %23 = getelementptr inbounds [10 x i32], ptr %5, i64 0, i64 0
  call void @fe_sq(ptr noundef %22, ptr noundef %23)
  store i32 1, ptr %9, align 4, !tbaa !15
  br label %24

24:                                               ; preds = %30, %21
  %25 = load i32, ptr %9, align 4, !tbaa !15
  %26 = icmp slt i32 %25, 2
  br i1 %26, label %27, label %33

27:                                               ; preds = %24
  %28 = getelementptr inbounds [10 x i32], ptr %6, i64 0, i64 0
  %29 = getelementptr inbounds [10 x i32], ptr %6, i64 0, i64 0
  call void @fe_sq(ptr noundef %28, ptr noundef %29)
  br label %30

30:                                               ; preds = %27
  %31 = load i32, ptr %9, align 4, !tbaa !15
  %32 = add nsw i32 %31, 1
  store i32 %32, ptr %9, align 4, !tbaa !15
  br label %24, !llvm.loop !19

33:                                               ; preds = %24
  %34 = getelementptr inbounds [10 x i32], ptr %6, i64 0, i64 0
  %35 = load ptr, ptr %4, align 8, !tbaa !13
  %36 = getelementptr inbounds [10 x i32], ptr %6, i64 0, i64 0
  call void @fe_mul(ptr noundef %34, ptr noundef %35, ptr noundef %36)
  %37 = getelementptr inbounds [10 x i32], ptr %5, i64 0, i64 0
  %38 = getelementptr inbounds [10 x i32], ptr %5, i64 0, i64 0
  %39 = getelementptr inbounds [10 x i32], ptr %6, i64 0, i64 0
  call void @fe_mul(ptr noundef %37, ptr noundef %38, ptr noundef %39)
  %40 = getelementptr inbounds [10 x i32], ptr %7, i64 0, i64 0
  %41 = getelementptr inbounds [10 x i32], ptr %5, i64 0, i64 0
  call void @fe_sq(ptr noundef %40, ptr noundef %41)
  store i32 1, ptr %9, align 4, !tbaa !15
  br label %42

42:                                               ; preds = %48, %33
  %43 = load i32, ptr %9, align 4, !tbaa !15
  %44 = icmp slt i32 %43, 1
  br i1 %44, label %45, label %51

45:                                               ; preds = %42
  %46 = getelementptr inbounds [10 x i32], ptr %7, i64 0, i64 0
  %47 = getelementptr inbounds [10 x i32], ptr %7, i64 0, i64 0
  call void @fe_sq(ptr noundef %46, ptr noundef %47)
  br label %48

48:                                               ; preds = %45
  %49 = load i32, ptr %9, align 4, !tbaa !15
  %50 = add nsw i32 %49, 1
  store i32 %50, ptr %9, align 4, !tbaa !15
  br label %42, !llvm.loop !20

51:                                               ; preds = %42
  %52 = getelementptr inbounds [10 x i32], ptr %6, i64 0, i64 0
  %53 = getelementptr inbounds [10 x i32], ptr %6, i64 0, i64 0
  %54 = getelementptr inbounds [10 x i32], ptr %7, i64 0, i64 0
  call void @fe_mul(ptr noundef %52, ptr noundef %53, ptr noundef %54)
  %55 = getelementptr inbounds [10 x i32], ptr %7, i64 0, i64 0
  %56 = getelementptr inbounds [10 x i32], ptr %6, i64 0, i64 0
  call void @fe_sq(ptr noundef %55, ptr noundef %56)
  store i32 1, ptr %9, align 4, !tbaa !15
  br label %57

57:                                               ; preds = %63, %51
  %58 = load i32, ptr %9, align 4, !tbaa !15
  %59 = icmp slt i32 %58, 5
  br i1 %59, label %60, label %66

60:                                               ; preds = %57
  %61 = getelementptr inbounds [10 x i32], ptr %7, i64 0, i64 0
  %62 = getelementptr inbounds [10 x i32], ptr %7, i64 0, i64 0
  call void @fe_sq(ptr noundef %61, ptr noundef %62)
  br label %63

63:                                               ; preds = %60
  %64 = load i32, ptr %9, align 4, !tbaa !15
  %65 = add nsw i32 %64, 1
  store i32 %65, ptr %9, align 4, !tbaa !15
  br label %57, !llvm.loop !21

66:                                               ; preds = %57
  %67 = getelementptr inbounds [10 x i32], ptr %6, i64 0, i64 0
  %68 = getelementptr inbounds [10 x i32], ptr %7, i64 0, i64 0
  %69 = getelementptr inbounds [10 x i32], ptr %6, i64 0, i64 0
  call void @fe_mul(ptr noundef %67, ptr noundef %68, ptr noundef %69)
  %70 = getelementptr inbounds [10 x i32], ptr %7, i64 0, i64 0
  %71 = getelementptr inbounds [10 x i32], ptr %6, i64 0, i64 0
  call void @fe_sq(ptr noundef %70, ptr noundef %71)
  store i32 1, ptr %9, align 4, !tbaa !15
  br label %72

72:                                               ; preds = %78, %66
  %73 = load i32, ptr %9, align 4, !tbaa !15
  %74 = icmp slt i32 %73, 10
  br i1 %74, label %75, label %81

75:                                               ; preds = %72
  %76 = getelementptr inbounds [10 x i32], ptr %7, i64 0, i64 0
  %77 = getelementptr inbounds [10 x i32], ptr %7, i64 0, i64 0
  call void @fe_sq(ptr noundef %76, ptr noundef %77)
  br label %78

78:                                               ; preds = %75
  %79 = load i32, ptr %9, align 4, !tbaa !15
  %80 = add nsw i32 %79, 1
  store i32 %80, ptr %9, align 4, !tbaa !15
  br label %72, !llvm.loop !22

81:                                               ; preds = %72
  %82 = getelementptr inbounds [10 x i32], ptr %7, i64 0, i64 0
  %83 = getelementptr inbounds [10 x i32], ptr %7, i64 0, i64 0
  %84 = getelementptr inbounds [10 x i32], ptr %6, i64 0, i64 0
  call void @fe_mul(ptr noundef %82, ptr noundef %83, ptr noundef %84)
  %85 = getelementptr inbounds [10 x i32], ptr %8, i64 0, i64 0
  %86 = getelementptr inbounds [10 x i32], ptr %7, i64 0, i64 0
  call void @fe_sq(ptr noundef %85, ptr noundef %86)
  store i32 1, ptr %9, align 4, !tbaa !15
  br label %87

87:                                               ; preds = %93, %81
  %88 = load i32, ptr %9, align 4, !tbaa !15
  %89 = icmp slt i32 %88, 20
  br i1 %89, label %90, label %96

90:                                               ; preds = %87
  %91 = getelementptr inbounds [10 x i32], ptr %8, i64 0, i64 0
  %92 = getelementptr inbounds [10 x i32], ptr %8, i64 0, i64 0
  call void @fe_sq(ptr noundef %91, ptr noundef %92)
  br label %93

93:                                               ; preds = %90
  %94 = load i32, ptr %9, align 4, !tbaa !15
  %95 = add nsw i32 %94, 1
  store i32 %95, ptr %9, align 4, !tbaa !15
  br label %87, !llvm.loop !23

96:                                               ; preds = %87
  %97 = getelementptr inbounds [10 x i32], ptr %7, i64 0, i64 0
  %98 = getelementptr inbounds [10 x i32], ptr %8, i64 0, i64 0
  %99 = getelementptr inbounds [10 x i32], ptr %7, i64 0, i64 0
  call void @fe_mul(ptr noundef %97, ptr noundef %98, ptr noundef %99)
  %100 = getelementptr inbounds [10 x i32], ptr %7, i64 0, i64 0
  %101 = getelementptr inbounds [10 x i32], ptr %7, i64 0, i64 0
  call void @fe_sq(ptr noundef %100, ptr noundef %101)
  store i32 1, ptr %9, align 4, !tbaa !15
  br label %102

102:                                              ; preds = %108, %96
  %103 = load i32, ptr %9, align 4, !tbaa !15
  %104 = icmp slt i32 %103, 10
  br i1 %104, label %105, label %111

105:                                              ; preds = %102
  %106 = getelementptr inbounds [10 x i32], ptr %7, i64 0, i64 0
  %107 = getelementptr inbounds [10 x i32], ptr %7, i64 0, i64 0
  call void @fe_sq(ptr noundef %106, ptr noundef %107)
  br label %108

108:                                              ; preds = %105
  %109 = load i32, ptr %9, align 4, !tbaa !15
  %110 = add nsw i32 %109, 1
  store i32 %110, ptr %9, align 4, !tbaa !15
  br label %102, !llvm.loop !24

111:                                              ; preds = %102
  %112 = getelementptr inbounds [10 x i32], ptr %6, i64 0, i64 0
  %113 = getelementptr inbounds [10 x i32], ptr %7, i64 0, i64 0
  %114 = getelementptr inbounds [10 x i32], ptr %6, i64 0, i64 0
  call void @fe_mul(ptr noundef %112, ptr noundef %113, ptr noundef %114)
  %115 = getelementptr inbounds [10 x i32], ptr %7, i64 0, i64 0
  %116 = getelementptr inbounds [10 x i32], ptr %6, i64 0, i64 0
  call void @fe_sq(ptr noundef %115, ptr noundef %116)
  store i32 1, ptr %9, align 4, !tbaa !15
  br label %117

117:                                              ; preds = %123, %111
  %118 = load i32, ptr %9, align 4, !tbaa !15
  %119 = icmp slt i32 %118, 50
  br i1 %119, label %120, label %126

120:                                              ; preds = %117
  %121 = getelementptr inbounds [10 x i32], ptr %7, i64 0, i64 0
  %122 = getelementptr inbounds [10 x i32], ptr %7, i64 0, i64 0
  call void @fe_sq(ptr noundef %121, ptr noundef %122)
  br label %123

123:                                              ; preds = %120
  %124 = load i32, ptr %9, align 4, !tbaa !15
  %125 = add nsw i32 %124, 1
  store i32 %125, ptr %9, align 4, !tbaa !15
  br label %117, !llvm.loop !25

126:                                              ; preds = %117
  %127 = getelementptr inbounds [10 x i32], ptr %7, i64 0, i64 0
  %128 = getelementptr inbounds [10 x i32], ptr %7, i64 0, i64 0
  %129 = getelementptr inbounds [10 x i32], ptr %6, i64 0, i64 0
  call void @fe_mul(ptr noundef %127, ptr noundef %128, ptr noundef %129)
  %130 = getelementptr inbounds [10 x i32], ptr %8, i64 0, i64 0
  %131 = getelementptr inbounds [10 x i32], ptr %7, i64 0, i64 0
  call void @fe_sq(ptr noundef %130, ptr noundef %131)
  store i32 1, ptr %9, align 4, !tbaa !15
  br label %132

132:                                              ; preds = %138, %126
  %133 = load i32, ptr %9, align 4, !tbaa !15
  %134 = icmp slt i32 %133, 100
  br i1 %134, label %135, label %141

135:                                              ; preds = %132
  %136 = getelementptr inbounds [10 x i32], ptr %8, i64 0, i64 0
  %137 = getelementptr inbounds [10 x i32], ptr %8, i64 0, i64 0
  call void @fe_sq(ptr noundef %136, ptr noundef %137)
  br label %138

138:                                              ; preds = %135
  %139 = load i32, ptr %9, align 4, !tbaa !15
  %140 = add nsw i32 %139, 1
  store i32 %140, ptr %9, align 4, !tbaa !15
  br label %132, !llvm.loop !26

141:                                              ; preds = %132
  %142 = getelementptr inbounds [10 x i32], ptr %7, i64 0, i64 0
  %143 = getelementptr inbounds [10 x i32], ptr %8, i64 0, i64 0
  %144 = getelementptr inbounds [10 x i32], ptr %7, i64 0, i64 0
  call void @fe_mul(ptr noundef %142, ptr noundef %143, ptr noundef %144)
  %145 = getelementptr inbounds [10 x i32], ptr %7, i64 0, i64 0
  %146 = getelementptr inbounds [10 x i32], ptr %7, i64 0, i64 0
  call void @fe_sq(ptr noundef %145, ptr noundef %146)
  store i32 1, ptr %9, align 4, !tbaa !15
  br label %147

147:                                              ; preds = %153, %141
  %148 = load i32, ptr %9, align 4, !tbaa !15
  %149 = icmp slt i32 %148, 50
  br i1 %149, label %150, label %156

150:                                              ; preds = %147
  %151 = getelementptr inbounds [10 x i32], ptr %7, i64 0, i64 0
  %152 = getelementptr inbounds [10 x i32], ptr %7, i64 0, i64 0
  call void @fe_sq(ptr noundef %151, ptr noundef %152)
  br label %153

153:                                              ; preds = %150
  %154 = load i32, ptr %9, align 4, !tbaa !15
  %155 = add nsw i32 %154, 1
  store i32 %155, ptr %9, align 4, !tbaa !15
  br label %147, !llvm.loop !27

156:                                              ; preds = %147
  %157 = getelementptr inbounds [10 x i32], ptr %6, i64 0, i64 0
  %158 = getelementptr inbounds [10 x i32], ptr %7, i64 0, i64 0
  %159 = getelementptr inbounds [10 x i32], ptr %6, i64 0, i64 0
  call void @fe_mul(ptr noundef %157, ptr noundef %158, ptr noundef %159)
  %160 = getelementptr inbounds [10 x i32], ptr %6, i64 0, i64 0
  %161 = getelementptr inbounds [10 x i32], ptr %6, i64 0, i64 0
  call void @fe_sq(ptr noundef %160, ptr noundef %161)
  store i32 1, ptr %9, align 4, !tbaa !15
  br label %162

162:                                              ; preds = %168, %156
  %163 = load i32, ptr %9, align 4, !tbaa !15
  %164 = icmp slt i32 %163, 5
  br i1 %164, label %165, label %171

165:                                              ; preds = %162
  %166 = getelementptr inbounds [10 x i32], ptr %6, i64 0, i64 0
  %167 = getelementptr inbounds [10 x i32], ptr %6, i64 0, i64 0
  call void @fe_sq(ptr noundef %166, ptr noundef %167)
  br label %168

168:                                              ; preds = %165
  %169 = load i32, ptr %9, align 4, !tbaa !15
  %170 = add nsw i32 %169, 1
  store i32 %170, ptr %9, align 4, !tbaa !15
  br label %162, !llvm.loop !28

171:                                              ; preds = %162
  %172 = load ptr, ptr %3, align 8, !tbaa !13
  %173 = getelementptr inbounds [10 x i32], ptr %6, i64 0, i64 0
  %174 = getelementptr inbounds [10 x i32], ptr %5, i64 0, i64 0
  call void @fe_mul(ptr noundef %172, ptr noundef %173, ptr noundef %174)
  call void @llvm.lifetime.end.p0(i64 4, ptr %9) #5
  call void @llvm.lifetime.end.p0(i64 40, ptr %8) #5
  call void @llvm.lifetime.end.p0(i64 40, ptr %7) #5
  call void @llvm.lifetime.end.p0(i64 40, ptr %6) #5
  call void @llvm.lifetime.end.p0(i64 40, ptr %5) #5
  ret void
}