; Function Attrs: nofree norecurse nosync nounwind memory(argmem: readwrite) uwtable
define internal fastcc void @fe_invert(ptr noundef nonnull writeonly captures(none) %0, ptr noundef readonly captures(none) %1) unnamed_addr #0 {
.critedge:
  %2 = alloca [10 x i32], align 16
  %3 = alloca [10 x i32], align 16
  %4 = alloca [10 x i32], align 16
  %5 = alloca [10 x i32], align 16
  call void @llvm.lifetime.start.p0(i64 40, ptr nonnull %2) #8
  call void @llvm.lifetime.start.p0(i64 40, ptr nonnull %3) #8
  call void @llvm.lifetime.start.p0(i64 40, ptr nonnull %4) #8
  call void @llvm.lifetime.start.p0(i64 40, ptr nonnull %5) #8
  call fastcc void @fe_sq(ptr noundef nonnull %2, ptr noundef %1)
  call fastcc void @fe_sq(ptr noundef nonnull %3, ptr noundef nonnull %2)
  call fastcc void @fe_sq(ptr noundef nonnull %3, ptr noundef nonnull %3)
  call fastcc void @fe_mul(ptr noundef nonnull %3, ptr noundef %1, ptr noundef nonnull %3)
  call fastcc void @fe_mul(ptr noundef nonnull %2, ptr noundef nonnull %2, ptr noundef nonnull %3)
  call fastcc void @fe_sq(ptr noundef nonnull %4, ptr noundef nonnull %2)
  call fastcc void @fe_mul(ptr noundef nonnull %3, ptr noundef nonnull %3, ptr noundef nonnull %4)
  call fastcc void @fe_sq(ptr noundef nonnull %4, ptr noundef nonnull %3)
  br label %6

6:                                                ; preds = %.critedge, %6
  %.324 = phi i32 [ 1, %.critedge ], [ %7, %6 ]
  call fastcc void @fe_sq(ptr noundef nonnull %4, ptr noundef nonnull %4)
  %7 = add nuw nsw i32 %.324, 1
  %exitcond.not = icmp eq i32 %7, 5
  br i1 %exitcond.not, label %8, label %6, !llvm.loop !9

8:                                                ; preds = %6
  call fastcc void @fe_mul(ptr noundef nonnull %3, ptr noundef nonnull %4, ptr noundef nonnull %3)
  call fastcc void @fe_sq(ptr noundef nonnull %4, ptr noundef nonnull %3)
  br label %9

9:                                                ; preds = %8, %9
  %.425 = phi i32 [ 1, %8 ], [ %10, %9 ]
  call fastcc void @fe_sq(ptr noundef nonnull %4, ptr noundef nonnull %4)
  %10 = add nuw nsw i32 %.425, 1
  %exitcond32.not = icmp eq i32 %10, 10
  br i1 %exitcond32.not, label %11, label %9, !llvm.loop !11

11:                                               ; preds = %9
  call fastcc void @fe_mul(ptr noundef nonnull %4, ptr noundef nonnull %4, ptr noundef nonnull %3)
  call fastcc void @fe_sq(ptr noundef nonnull %5, ptr noundef nonnull %4)
  br label %12

12:                                               ; preds = %11, %12
  %.526 = phi i32 [ 1, %11 ], [ %13, %12 ]
  call fastcc void @fe_sq(ptr noundef nonnull %5, ptr noundef nonnull %5)
  %13 = add nuw nsw i32 %.526, 1
  %exitcond33.not = icmp eq i32 %13, 20
  br i1 %exitcond33.not, label %14, label %12, !llvm.loop !12

14:                                               ; preds = %12
  call fastcc void @fe_mul(ptr noundef nonnull %4, ptr noundef nonnull %5, ptr noundef nonnull %4)
  call fastcc void @fe_sq(ptr noundef nonnull %4, ptr noundef nonnull %4)
  br label %15

15:                                               ; preds = %14, %15
  %.627 = phi i32 [ 1, %14 ], [ %16, %15 ]
  call fastcc void @fe_sq(ptr noundef nonnull %4, ptr noundef nonnull %4)
  %16 = add nuw nsw i32 %.627, 1
  %exitcond34.not = icmp eq i32 %16, 10
  br i1 %exitcond34.not, label %17, label %15, !llvm.loop !13

17:                                               ; preds = %15
  call fastcc void @fe_mul(ptr noundef nonnull %3, ptr noundef nonnull %4, ptr noundef nonnull %3)
  call fastcc void @fe_sq(ptr noundef nonnull %4, ptr noundef nonnull %3)
  br label %18

18:                                               ; preds = %17, %18
  %.728 = phi i32 [ 1, %17 ], [ %19, %18 ]
  call fastcc void @fe_sq(ptr noundef nonnull %4, ptr noundef nonnull %4)
  %19 = add nuw nsw i32 %.728, 1
  %exitcond35.not = icmp eq i32 %19, 50
  br i1 %exitcond35.not, label %20, label %18, !llvm.loop !14

20:                                               ; preds = %18
  call fastcc void @fe_mul(ptr noundef nonnull %4, ptr noundef nonnull %4, ptr noundef nonnull %3)
  call fastcc void @fe_sq(ptr noundef nonnull %5, ptr noundef nonnull %4)
  br label %21

21:                                               ; preds = %20, %21
  %.829 = phi i32 [ 1, %20 ], [ %22, %21 ]
  call fastcc void @fe_sq(ptr noundef nonnull %5, ptr noundef nonnull %5)
  %22 = add nuw nsw i32 %.829, 1
  %exitcond36.not = icmp eq i32 %22, 100
  br i1 %exitcond36.not, label %23, label %21, !llvm.loop !15

23:                                               ; preds = %21
  call fastcc void @fe_mul(ptr noundef nonnull %4, ptr noundef nonnull %5, ptr noundef nonnull %4)
  call fastcc void @fe_sq(ptr noundef nonnull %4, ptr noundef nonnull %4)
  br label %24

24:                                               ; preds = %23, %24
  %.930 = phi i32 [ 1, %23 ], [ %25, %24 ]
  call fastcc void @fe_sq(ptr noundef nonnull %4, ptr noundef nonnull %4)
  %25 = add nuw nsw i32 %.930, 1
  %exitcond37.not = icmp eq i32 %25, 50
  br i1 %exitcond37.not, label %26, label %24, !llvm.loop !16

26:                                               ; preds = %24
  call fastcc void @fe_mul(ptr noundef nonnull %3, ptr noundef nonnull %4, ptr noundef nonnull %3)
  call fastcc void @fe_sq(ptr noundef nonnull %3, ptr noundef nonnull %3)
  br label %27

27:                                               ; preds = %26, %27
  %.1031 = phi i32 [ 1, %26 ], [ %28, %27 ]
  call fastcc void @fe_sq(ptr noundef nonnull %3, ptr noundef nonnull %3)
  %28 = add nuw nsw i32 %.1031, 1
  %exitcond38.not = icmp eq i32 %28, 5
  br i1 %exitcond38.not, label %29, label %27, !llvm.loop !17

29:                                               ; preds = %27
  call fastcc void @fe_mul(ptr noundef nonnull %0, ptr noundef nonnull %3, ptr noundef nonnull %2)
  call void @llvm.lifetime.end.p0(i64 40, ptr nonnull %5) #8
  call void @llvm.lifetime.end.p0(i64 40, ptr nonnull %4) #8
  call void @llvm.lifetime.end.p0(i64 40, ptr nonnull %3) #8
  call void @llvm.lifetime.end.p0(i64 40, ptr nonnull %2) #8
  ret void
}